target datalayout = "e-m:e-p270:32:32-p271:32:32-p272:64:64-i64:64-i128:128-f80:128-n8:16:32:64-S128"
target triple = "x86_64-pc-linux-gnu"

%struct.tr2_tgt = type { ptr, ptr, ptr, ptr, ptr, ptr, ptr, ptr, ptr, ptr, ptr, ptr, ptr, ptr, ptr, ptr, ptr, ptr, ptr, ptr, ptr, ptr, ptr, ptr, ptr, ptr, ptr, ptr, ptr, ptr }

@trace2_enabled = internal global i32 0, align 4
@tr2_tgt_builtins = internal global [4 x ptr] [ptr @tr2_tgt_normal, ptr @tr2_tgt_perf, ptr @tr2_tgt_event, ptr null], align 16
@.str.2 = private unnamed_addr constant [24 x i8] c"thread-proc on main: %s\00", align 1

; Function Attrs: nounwind uwtable
define dso_local void @trace2_thread_start_fl(ptr noundef %0, i32 noundef %1, ptr noundef %2) #0 {
  %4 = alloca ptr, align 8
  %5 = alloca i32, align 4
  %6 = alloca ptr, align 8
  %7 = alloca ptr, align 8
  %8 = alloca i32, align 4
  %9 = alloca i64, align 8
  %10 = alloca i64, align 8
  %11 = alloca i32, align 4
  store ptr %0, ptr %4, align 8, !tbaa !4
  store i32 %1, ptr %5, align 4, !tbaa !9
  store ptr %2, ptr %6, align 8, !tbaa !4
  call void @llvm.lifetime.start.p0(i64 8, ptr %7) #9
  call void @llvm.lifetime.start.p0(i64 4, ptr %8) #9
  call void @llvm.lifetime.start.p0(i64 8, ptr %9) #9
  call void @llvm.lifetime.start.p0(i64 8, ptr %10) #9
  %12 = load i32, ptr @trace2_enabled, align 4, !tbaa !9
  %13 = icmp ne i32 %12, 0
  br i1 %13, label %15, label %14

14:                                               ; preds = %3
  store i32 1, ptr %11, align 4
  br label %65

15:                                               ; preds = %3
  %16 = call i32 @tr2tls_is_main_thread()
  %17 = icmp ne i32 %16, 0
  br i1 %17, label %18, label %22

18:                                               ; preds = %15
  %19 = load ptr, ptr %4, align 8, !tbaa !4
  %20 = load i32, ptr %5, align 4, !tbaa !9
  %21 = load ptr, ptr %6, align 8, !tbaa !4
  call void (ptr, i32, ptr, ptr, ptr, ptr, ...) @trace2_region_enter_printf_fl(ptr noundef %19, i32 noundef %20, ptr noundef null, ptr noundef null, ptr noundef null, ptr noundef @.str.2, ptr noundef %21)
  store i32 1, ptr %11, align 4
  br label %65

22:                                               ; preds = %15
  %23 = call i64 @getnanotime()
  %24 = udiv i64 %23, 1000
  store i64 %24, ptr %9, align 8, !tbaa !21
  %25 = load i64, ptr %9, align 8, !tbaa !21
  %26 = call i64 @tr2tls_absolute_elapsed(i64 noundef %25)
  store i64 %26, ptr %10, align 8, !tbaa !21
  %27 = load ptr, ptr %6, align 8, !tbaa !4
  %28 = load i64, ptr %9, align 8, !tbaa !21
  %29 = call ptr @tr2tls_create_self(ptr noundef %27, i64 noundef %28)
  store i32 0, ptr %8, align 4, !tbaa !9
  %30 = load i32, ptr %8, align 4, !tbaa !9
  %31 = sext i32 %30 to i64
  %32 = getelementptr inbounds [4 x ptr], ptr @tr2_tgt_builtins, i64 0, i64 %31
  %33 = load ptr, ptr %32, align 8, !tbaa !11
  store ptr %33, ptr %7, align 8, !tbaa !11
  br label %34

34:                                               ; preds = %57, %22
  %35 = load ptr, ptr %7, align 8, !tbaa !11
  %36 = icmp ne ptr %35, null
  br i1 %36, label %37, label %64

37:                                               ; preds = %34
  %38 = load ptr, ptr %7, align 8, !tbaa !11
  %39 = getelementptr inbounds nuw %struct.tr2_tgt, ptr %38, i32 0, i32 0
  %40 = load ptr, ptr %39, align 8, !tbaa !13
  %41 = call i32 @tr2_dst_trace_want(ptr noundef %40)
  %42 = icmp ne i32 %41, 0
  br i1 %42, label %43, label %56

43:                                               ; preds = %37
  %44 = load ptr, ptr %7, align 8, !tbaa !11
  %45 = getelementptr inbounds nuw %struct.tr2_tgt, ptr %44, i32 0, i32 17
  %46 = load ptr, ptr %45, align 8, !tbaa !70
  %47 = icmp ne ptr %46, null
  br i1 %47, label %48, label %55

48:                                               ; preds = %43
  %49 = load ptr, ptr %7, align 8, !tbaa !11
  %50 = getelementptr inbounds nuw %struct.tr2_tgt, ptr %49, i32 0, i32 17
  %51 = load ptr, ptr %50, align 8, !tbaa !70
  %52 = load ptr, ptr %4, align 8, !tbaa !4
  %53 = load i32, ptr %5, align 4, !tbaa !9
  %54 = load i64, ptr %10, align 8, !tbaa !21
  call void %51(ptr noundef %52, i32 noundef %53, i64 noundef %54)
  br label %55

55:                                               ; preds = %48, %43
  br label %56

56:                                               ; preds = %55, %37
  br label %57

57:                                               ; preds = %56
  %58 = load i32, ptr %8, align 4, !tbaa !9
  %59 = add nsw i32 %58, 1
  store i32 %59, ptr %8, align 4, !tbaa !9
  %60 = load i32, ptr %8, align 4, !tbaa !9
  %61 = sext i32 %60 to i64
  %62 = getelementptr inbounds [4 x ptr], ptr @tr2_tgt_builtins, i64 0, i64 %61
  %63 = load ptr, ptr %62, align 8, !tbaa !11
  store ptr %63, ptr %7, align 8, !tbaa !11
  br label %34, !llvm.loop !71

64:                                               ; preds = %34
  store i32 0, ptr %11, align 4
  br label %65

65:                                               ; preds = %64, %18, %14
  call void @llvm.lifetime.end.p0(i64 8, ptr %10) #9
  call void @llvm.lifetime.end.p0(i64 8, ptr %9) #9
  call void @llvm.lifetime.end.p0(i64 4, ptr %8) #9
  call void @llvm.lifetime.end.p0(i64 8, ptr %7) #9
  %66 = load i32, ptr %11, align 4
  switch i32 %66, label %68 [
    i32 0, label %67
    i32 1, label %67
  ]

67:                                               ; preds = %65, %65
  ret void

68:                                               ; preds = %65
  unreachable
}